target datalayout = "e-m:e-p270:32:32-p271:32:32-p272:64:64-i64:64-i128:128-f80:128-n8:16:32:64-S128"
target triple = "x86_64-pc-linux-gnu"

%struct.strbuf = type { i64, i64, ptr }

@__const.fn_signal.buf_payload = private unnamed_addr constant %struct.strbuf { i64 0, i64 0, ptr @strbuf_slopbuf }, align 8
@.str.7 = private unnamed_addr constant [28 x i8] c"signal elapsed:%.6f code:%d\00", align 1
@.str.8 = private unnamed_addr constant [24 x i8] c"trace2/tr2_tgt_normal.c\00", align 1

; Function Attrs: nounwind uwtable
define internal void @fn_signal(i64 noundef %0, i32 noundef %1) #0 {
  %3 = alloca i64, align 8
  %4 = alloca i32, align 4
  %5 = alloca %struct.strbuf, align 8
  %6 = alloca double, align 8
  store i64 %0, ptr %3, align 8, !tbaa !12
  store i32 %1, ptr %4, align 4, !tbaa !4
  call void @llvm.lifetime.start.p0(i64 24, ptr %5) #9
  call void @llvm.memcpy.p0.p0.i64(ptr align 8 %5, ptr align 8 @__const.fn_signal.buf_payload, i64 24, i1 false)
  call void @llvm.lifetime.start.p0(i64 8, ptr %6) #9
  %7 = load i64, ptr %3, align 8, !tbaa !12
  %8 = uitofp i64 %7 to double
  %9 = fdiv double %8, 1.000000e+06
  store double %9, ptr %6, align 8, !tbaa !16
  %10 = load double, ptr %6, align 8, !tbaa !16
  %11 = load i32, ptr %4, align 4, !tbaa !4
  call void (ptr, ptr, ...) @strbuf_addf(ptr noundef %5, ptr noundef @.str.7, double noundef %10, i32 noundef %11)
  call void @normal_io_write_fl(ptr noundef @.str.8, i32 noundef 118, ptr noundef %5)
  call void @strbuf_release(ptr noundef %5)
  call void @llvm.lifetime.end.p0(i64 8, ptr %6) #9
  call void @llvm.lifetime.end.p0(i64 24, ptr %5) #9
  ret void
}